target datalayout = "e-m:e-p270:32:32-p271:32:32-p272:64:64-i64:64-i128:128-f80:128-n8:16:32:64-S128"
target triple = "x86_64-pc-linux-gnu"

%struct.stb_vorbis = type { i32, i32, i32, i32, i32, ptr, i32, ptr, ptr, i32, i32, ptr, ptr, ptr, i32, i8, i32, %struct.ProbedPage, %struct.ProbedPage, %struct.stb_vorbis_alloc, i32, i32, i32, i32, [2 x i32], i32, i32, i32, ptr, i32, [64 x i16], ptr, i32, [64 x i16], ptr, i32, ptr, i32, [64 x %struct.Mode], i32, [16 x ptr], [16 x ptr], [16 x ptr], i32, [16 x ptr], i32, i32, [2 x ptr], [2 x ptr], [2 x ptr], [2 x ptr], [2 x ptr], i32, i32, i32, [255 x i8], i8, i8, i8, i32, i32, i32, i32, i32, i32, i32, i32, i32, i32, i32, [4 x %struct.CRCscan], i32, i32 }
%struct.ProbedPage = type { i32, i32, i32 }
%struct.stb_vorbis_alloc = type { ptr, i32 }
%struct.Mode = type { i8, i8, i16, i16 }
%struct.CRCscan = type { i32, i32, i32, i32, i32 }

@.str = private unnamed_addr constant [3 x i8] c"rb\00", align 1

; Function Attrs: nounwind uwtable
define void @setup_free(ptr noundef %0, ptr noundef %1) #0 {
  %3 = alloca ptr, align 8
  %4 = alloca ptr, align 8
  store ptr %0, ptr %3, align 8, !tbaa !3
  store ptr %1, ptr %4, align 8, !tbaa !18
  %5 = load ptr, ptr %3, align 8, !tbaa !3
  %6 = getelementptr inbounds nuw %struct.stb_vorbis, ptr %5, i32 0, i32 19
  %7 = getelementptr inbounds nuw %struct.stb_vorbis_alloc, ptr %6, i32 0, i32 0
  %8 = load ptr, ptr %7, align 8, !tbaa !23
  %9 = icmp ne ptr %8, null
  br i1 %9, label %10, label %11

10:                                               ; preds = %2
  br label %13

11:                                               ; preds = %2
  %12 = load ptr, ptr %4, align 8, !tbaa !18
  call void @free(ptr noundef %12) #11
  br label %13

13:                                               ; preds = %11, %10
  ret void
}

; Function Attrs: nounwind uwtable
define ptr @stb_vorbis_open_file(ptr noundef %0, i32 noundef %1, ptr noundef %2, ptr noundef %3) #0 {
  %5 = alloca ptr, align 8
  %6 = alloca i32, align 4
  %7 = alloca ptr, align 8
  %8 = alloca ptr, align 8
  %9 = alloca i32, align 4
  %10 = alloca i32, align 4
  store ptr %0, ptr %5, align 8, !tbaa !312
  store i32 %1, ptr %6, align 4, !tbaa !8
  store ptr %2, ptr %7, align 8, !tbaa !33
  store ptr %3, ptr %8, align 8, !tbaa !18
  call void @llvm.lifetime.start.p0(i64 4, ptr %9) #11
  call void @llvm.lifetime.start.p0(i64 4, ptr %10) #11
  %11 = load ptr, ptr %5, align 8, !tbaa !312
  %12 = call i64 @ftell(ptr noundef %11)
  %13 = trunc i64 %12 to i32
  store i32 %13, ptr %10, align 4, !tbaa !8
  %14 = load ptr, ptr %5, align 8, !tbaa !312
  %15 = call i32 @fseek(ptr noundef %14, i64 noundef 0, i32 noundef 2)
  %16 = load ptr, ptr %5, align 8, !tbaa !312
  %17 = call i64 @ftell(ptr noundef %16)
  %18 = load i32, ptr %10, align 4, !tbaa !8
  %19 = zext i32 %18 to i64
  %20 = sub nsw i64 %17, %19
  %21 = trunc i64 %20 to i32
  store i32 %21, ptr %9, align 4, !tbaa !8
  %22 = load ptr, ptr %5, align 8, !tbaa !312
  %23 = load i32, ptr %10, align 4, !tbaa !8
  %24 = zext i32 %23 to i64
  %25 = call i32 @fseek(ptr noundef %22, i64 noundef %24, i32 noundef 0)
  %26 = load ptr, ptr %5, align 8, !tbaa !312
  %27 = load i32, ptr %6, align 4, !tbaa !8
  %28 = load ptr, ptr %7, align 8, !tbaa !33
  %29 = load ptr, ptr %8, align 8, !tbaa !18
  %30 = load i32, ptr %9, align 4, !tbaa !8
  %31 = call ptr @stb_vorbis_open_file_section(ptr noundef %26, i32 noundef %27, ptr noundef %28, ptr noundef %29, i32 noundef %30)
  call void @llvm.lifetime.end.p0(i64 4, ptr %10) #11
  call void @llvm.lifetime.end.p0(i64 4, ptr %9) #11
  ret ptr %31
}

; Function Attrs: nounwind uwtable
define void @stb_vorbis_close(ptr noundef %0) #0 {
  %2 = alloca ptr, align 8
  store ptr %0, ptr %2, align 8, !tbaa !3
  %3 = load ptr, ptr %2, align 8, !tbaa !3
  %4 = icmp eq ptr %3, null
  br i1 %4, label %5, label %6

5:                                                ; preds = %1
  br label %10

6:                                                ; preds = %1
  %7 = load ptr, ptr %2, align 8, !tbaa !3
  call void @vorbis_deinit(ptr noundef %7)
  %8 = load ptr, ptr %2, align 8, !tbaa !3
  %9 = load ptr, ptr %2, align 8, !tbaa !3
  call void @setup_free(ptr noundef %8, ptr noundef %9)
  br label %10

10:                                               ; preds = %6, %5
  ret void
}

; Function Attrs: nounwind uwtable
define ptr @stb_vorbis_open_filename(ptr noundef %0, ptr noundef %1, ptr noundef %2) #0 {
  %4 = alloca ptr, align 8
  %5 = alloca ptr, align 8
  %6 = alloca ptr, align 8
  %7 = alloca ptr, align 8
  %8 = alloca ptr, align 8
  %9 = alloca i32, align 4
  store ptr %0, ptr %5, align 8, !tbaa !19
  store ptr %1, ptr %6, align 8, !tbaa !33
  store ptr %2, ptr %7, align 8, !tbaa !18
  call void @llvm.lifetime.start.p0(i64 8, ptr %8) #11
  %10 = load ptr, ptr %5, align 8, !tbaa !19
  %11 = call noalias ptr @fopen(ptr noundef %10, ptr noundef @.str)
  store ptr %11, ptr %8, align 8, !tbaa !312
  %12 = load ptr, ptr %8, align 8, !tbaa !312
  %13 = icmp ne ptr %12, null
  br i1 %13, label %14, label %19

14:                                               ; preds = %3
  %15 = load ptr, ptr %8, align 8, !tbaa !312
  %16 = load ptr, ptr %6, align 8, !tbaa !33
  %17 = load ptr, ptr %7, align 8, !tbaa !18
  %18 = call ptr @stb_vorbis_open_file(ptr noundef %15, i32 noundef 1, ptr noundef %16, ptr noundef %17)
  store ptr %18, ptr %4, align 8
  store i32 1, ptr %9, align 4
  br label %25

19:                                               ; preds = %3
  %20 = load ptr, ptr %6, align 8, !tbaa !33
  %21 = icmp ne ptr %20, null
  br i1 %21, label %22, label %24

22:                                               ; preds = %19
  %23 = load ptr, ptr %6, align 8, !tbaa !33
  store i32 6, ptr %23, align 4, !tbaa !8
  br label %24

24:                                               ; preds = %22, %19
  store ptr null, ptr %4, align 8
  store i32 1, ptr %9, align 4
  br label %25

25:                                               ; preds = %24, %14
  call void @llvm.lifetime.end.p0(i64 8, ptr %8) #11
  %26 = load ptr, ptr %4, align 8
  ret ptr %26
}

; Function Attrs: nounwind uwtable
define i32 @stb_vorbis_decode_filename(ptr noundef %0, ptr noundef %1, ptr noundef %2, ptr noundef %3) #0 {
  %5 = alloca i32, align 4
  %6 = alloca ptr, align 8
  %7 = alloca ptr, align 8
  %8 = alloca ptr, align 8
  %9 = alloca ptr, align 8
  %10 = alloca i32, align 4
  %11 = alloca i32, align 4
  %12 = alloca i32, align 4
  %13 = alloca i32, align 4
  %14 = alloca i32, align 4
  %15 = alloca ptr, align 8
  %16 = alloca ptr, align 8
  %17 = alloca i32, align 4
  %18 = alloca i32, align 4
  %19 = alloca ptr, align 8
  store ptr %0, ptr %6, align 8, !tbaa !19
  store ptr %1, ptr %7, align 8, !tbaa !33
  store ptr %2, ptr %8, align 8, !tbaa !33
  store ptr %3, ptr %9, align 8, !tbaa !349
  call void @llvm.lifetime.start.p0(i64 4, ptr %10) #11
  call void @llvm.lifetime.start.p0(i64 4, ptr %11) #11
  call void @llvm.lifetime.start.p0(i64 4, ptr %12) #11
  call void @llvm.lifetime.start.p0(i64 4, ptr %13) #11
  call void @llvm.lifetime.start.p0(i64 4, ptr %14) #11
  call void @llvm.lifetime.start.p0(i64 8, ptr %15) #11
  call void @llvm.lifetime.start.p0(i64 8, ptr %16) #11
  %20 = load ptr, ptr %6, align 8, !tbaa !19
  %21 = call ptr @stb_vorbis_open_filename(ptr noundef %20, ptr noundef %14, ptr noundef null)
  store ptr %21, ptr %16, align 8, !tbaa !3
  %22 = load ptr, ptr %16, align 8, !tbaa !3
  %23 = icmp eq ptr %22, null
  br i1 %23, label %24, label %25

24:                                               ; preds = %4
  store i32 -1, ptr %5, align 4
  store i32 1, ptr %17, align 4
  br label %111

25:                                               ; preds = %4
  %26 = load ptr, ptr %16, align 8, !tbaa !3
  %27 = getelementptr inbounds nuw %struct.stb_vorbis, ptr %26, i32 0, i32 1
  %28 = load i32, ptr %27, align 4, !tbaa !122
  %29 = mul nsw i32 %28, 4096
  store i32 %29, ptr %13, align 4, !tbaa !8
  %30 = load ptr, ptr %16, align 8, !tbaa !3
  %31 = getelementptr inbounds nuw %struct.stb_vorbis, ptr %30, i32 0, i32 1
  %32 = load i32, ptr %31, align 4, !tbaa !122
  %33 = load ptr, ptr %7, align 8, !tbaa !33
  store i32 %32, ptr %33, align 4, !tbaa !8
  %34 = load ptr, ptr %8, align 8, !tbaa !33
  %35 = icmp ne ptr %34, null
  br i1 %35, label %36, label %41

36:                                               ; preds = %25
  %37 = load ptr, ptr %16, align 8, !tbaa !3
  %38 = getelementptr inbounds nuw %struct.stb_vorbis, ptr %37, i32 0, i32 0
  %39 = load i32, ptr %38, align 8, !tbaa !204
  %40 = load ptr, ptr %8, align 8, !tbaa !33
  store i32 %39, ptr %40, align 4, !tbaa !8
  br label %41

41:                                               ; preds = %36, %25
  store i32 0, ptr %10, align 4, !tbaa !8
  store i32 0, ptr %11, align 4, !tbaa !8
  %42 = load i32, ptr %13, align 4, !tbaa !8
  store i32 %42, ptr %12, align 4, !tbaa !8
  %43 = load i32, ptr %12, align 4, !tbaa !8
  %44 = sext i32 %43 to i64
  %45 = mul i64 %44, 2
  %46 = call noalias ptr @malloc(i64 noundef %45) #12
  store ptr %46, ptr %15, align 8, !tbaa !62
  %47 = load ptr, ptr %15, align 8, !tbaa !62
  %48 = icmp eq ptr %47, null
  br i1 %48, label %49, label %51

49:                                               ; preds = %41
  %50 = load ptr, ptr %16, align 8, !tbaa !3
  call void @stb_vorbis_close(ptr noundef %50)
  store i32 -2, ptr %5, align 4
  store i32 1, ptr %17, align 4
  br label %111

51:                                               ; preds = %41
  br label %52

52:                                               ; preds = %105, %51
  call void @llvm.lifetime.start.p0(i64 4, ptr %18) #11
  %53 = load ptr, ptr %16, align 8, !tbaa !3
  %54 = load ptr, ptr %16, align 8, !tbaa !3
  %55 = getelementptr inbounds nuw %struct.stb_vorbis, ptr %54, i32 0, i32 1
  %56 = load i32, ptr %55, align 4, !tbaa !122
  %57 = load ptr, ptr %15, align 8, !tbaa !62
  %58 = load i32, ptr %11, align 4, !tbaa !8
  %59 = sext i32 %58 to i64
  %60 = getelementptr inbounds i16, ptr %57, i64 %59
  %61 = load i32, ptr %12, align 4, !tbaa !8
  %62 = load i32, ptr %11, align 4, !tbaa !8
  %63 = sub nsw i32 %61, %62
  %64 = call i32 @stb_vorbis_get_frame_short_interleaved(ptr noundef %53, i32 noundef %56, ptr noundef %60, i32 noundef %63)
  store i32 %64, ptr %18, align 4, !tbaa !8
  %65 = load i32, ptr %18, align 4, !tbaa !8
  %66 = icmp eq i32 %65, 0
  br i1 %66, label %67, label %68

67:                                               ; preds = %52
  store i32 2, ptr %17, align 4
  br label %103

68:                                               ; preds = %52
  %69 = load i32, ptr %18, align 4, !tbaa !8
  %70 = load i32, ptr %10, align 4, !tbaa !8
  %71 = add nsw i32 %70, %69
  store i32 %71, ptr %10, align 4, !tbaa !8
  %72 = load i32, ptr %18, align 4, !tbaa !8
  %73 = load ptr, ptr %16, align 8, !tbaa !3
  %74 = getelementptr inbounds nuw %struct.stb_vorbis, ptr %73, i32 0, i32 1
  %75 = load i32, ptr %74, align 4, !tbaa !122
  %76 = mul nsw i32 %72, %75
  %77 = load i32, ptr %11, align 4, !tbaa !8
  %78 = add nsw i32 %77, %76
  store i32 %78, ptr %11, align 4, !tbaa !8
  %79 = load i32, ptr %11, align 4, !tbaa !8
  %80 = load i32, ptr %13, align 4, !tbaa !8
  %81 = add nsw i32 %79, %80
  %82 = load i32, ptr %12, align 4, !tbaa !8
  %83 = icmp sgt i32 %81, %82
  br i1 %83, label %84, label %102

84:                                               ; preds = %68
  call void @llvm.lifetime.start.p0(i64 8, ptr %19) #11
  %85 = load i32, ptr %12, align 4, !tbaa !8
  %86 = mul nsw i32 %85, 2
  store i32 %86, ptr %12, align 4, !tbaa !8
  %87 = load ptr, ptr %15, align 8, !tbaa !62
  %88 = load i32, ptr %12, align 4, !tbaa !8
  %89 = sext i32 %88 to i64
  %90 = mul i64 %89, 2
  %91 = call ptr @realloc(ptr noundef %87, i64 noundef %90) #14
  store ptr %91, ptr %19, align 8, !tbaa !62
  %92 = load ptr, ptr %19, align 8, !tbaa !62
  %93 = icmp eq ptr %92, null
  br i1 %93, label %94, label %97

94:                                               ; preds = %84
  %95 = load ptr, ptr %15, align 8, !tbaa !62
  call void @free(ptr noundef %95) #11
  %96 = load ptr, ptr %16, align 8, !tbaa !3
  call void @stb_vorbis_close(ptr noundef %96)
  store i32 -2, ptr %5, align 4
  store i32 1, ptr %17, align 4
  br label %99

97:                                               ; preds = %84
  %98 = load ptr, ptr %19, align 8, !tbaa !62
  store ptr %98, ptr %15, align 8, !tbaa !62
  store i32 0, ptr %17, align 4
  br label %99

99:                                               ; preds = %97, %94
  call void @llvm.lifetime.end.p0(i64 8, ptr %19) #11
  %100 = load i32, ptr %17, align 4
  switch i32 %100, label %103 [
    i32 0, label %101
  ]

101:                                              ; preds = %99
  br label %102

102:                                              ; preds = %101, %68
  store i32 0, ptr %17, align 4
  br label %103

103:                                              ; preds = %102, %99, %67
  call void @llvm.lifetime.end.p0(i64 4, ptr %18) #11
  %104 = load i32, ptr %17, align 4
  switch i32 %104, label %111 [
    i32 0, label %105
    i32 2, label %106
  ]

105:                                              ; preds = %103
  br label %52

106:                                              ; preds = %103
  %107 = load ptr, ptr %15, align 8, !tbaa !62
  %108 = load ptr, ptr %9, align 8, !tbaa !349
  store ptr %107, ptr %108, align 8, !tbaa !62
  %109 = load ptr, ptr %16, align 8, !tbaa !3
  call void @stb_vorbis_close(ptr noundef %109)
  %110 = load i32, ptr %10, align 4, !tbaa !8
  store i32 %110, ptr %5, align 4
  store i32 1, ptr %17, align 4
  br label %111

111:                                              ; preds = %106, %103, %49, %24
  call void @llvm.lifetime.end.p0(i64 8, ptr %16) #11
  call void @llvm.lifetime.end.p0(i64 8, ptr %15) #11
  call void @llvm.lifetime.end.p0(i64 4, ptr %14) #11
  call void @llvm.lifetime.end.p0(i64 4, ptr %13) #11
  call void @llvm.lifetime.end.p0(i64 4, ptr %12) #11
  call void @llvm.lifetime.end.p0(i64 4, ptr %11) #11
  call void @llvm.lifetime.end.p0(i64 4, ptr %10) #11
  %112 = load i32, ptr %5, align 4
  ret i32 %112
}