; Function Attrs: nounwind uwtable
define i32 @stb_vorbis_decode_filename(ptr noundef readonly captures(none) %0, ptr noundef writeonly captures(none) %1, ptr noundef writeonly captures(address_is_null) %2, ptr noundef writeonly captures(none) %3) local_unnamed_addr #29 {
  %5 = alloca i32, align 4
  call void @llvm.lifetime.start.p0(i64 4, ptr nonnull %5) #35
  %6 = tail call noalias ptr @fopen(ptr noundef readonly %0, ptr noundef nonnull @.str)
  %.not.i = icmp eq ptr %6, null
  br i1 %.not.i, label %stb_vorbis_close.exit, label %stb_vorbis_open_filename.exit

stb_vorbis_open_filename.exit:                    ; preds = %4
  %7 = tail call i64 @ftell(ptr noundef nonnull %6)
  %8 = tail call i32 @fseek(ptr noundef nonnull %6, i64 noundef 0, i32 noundef 2)
  %9 = tail call i64 @ftell(ptr noundef nonnull %6)
  %10 = and i64 %7, 4294967295
  %11 = sub i64 %9, %7
  %12 = trunc i64 %11 to i32
  %13 = tail call i32 @fseek(ptr noundef nonnull %6, i64 noundef %10, i32 noundef 0)
  %14 = call ptr @stb_vorbis_open_file_section(ptr noundef nonnull %6, i32 noundef 1, ptr noundef nonnull %5, ptr noundef null, i32 noundef %12)
  %15 = icmp eq ptr %14, null
  br i1 %15, label %stb_vorbis_close.exit, label %16

16:                                               ; preds = %stb_vorbis_open_filename.exit
  %17 = getelementptr inbounds nuw i8, ptr %14, i64 4
  %18 = load i32, ptr %17, align 4, !tbaa !110
  %19 = shl nsw i32 %18, 12
  store i32 %18, ptr %1, align 4, !tbaa !21
  %.not = icmp eq ptr %2, null
  br i1 %.not, label %22, label %20

20:                                               ; preds = %16
  %21 = load i32, ptr %14, align 8, !tbaa !191
  store i32 %21, ptr %2, align 4, !tbaa !21
  br label %22

22:                                               ; preds = %20, %16
  %23 = sext i32 %19 to i64
  %24 = shl nsw i64 %23, 1
  %25 = call noalias ptr @malloc(i64 noundef %24) #34
  %26 = icmp eq ptr %25, null
  br i1 %26, label %30, label %.preheader

.preheader:                                       ; preds = %22
  %27 = load i32, ptr %17, align 4, !tbaa !110
  %28 = call i32 @stb_vorbis_get_frame_short_interleaved(ptr noundef nonnull %14, i32 noundef %27, ptr noundef nonnull %25, i32 noundef %19)
  %29 = icmp eq i32 %28, 0
  br i1 %29, label %._crit_edge, label %.lr.ph

30:                                               ; preds = %22
  call void @vorbis_deinit(ptr noundef nonnull %14)
  %31 = getelementptr inbounds nuw i8, ptr %14, i64 128
  %32 = load ptr, ptr %31, align 8, !tbaa !17
  %.not.i.i = icmp eq ptr %32, null
  br i1 %.not.i.i, label %stb_vorbis_close.exit.sink.split, label %stb_vorbis_close.exit

.lr.ph:                                           ; preds = %.preheader, %stb_vorbis_close.exit60
  %33 = phi i32 [ %52, %stb_vorbis_close.exit60 ], [ %28, %.preheader ]
  %.04083 = phi i32 [ %34, %stb_vorbis_close.exit60 ], [ 0, %.preheader ]
  %.04482 = phi i32 [ %37, %stb_vorbis_close.exit60 ], [ 0, %.preheader ]
  %.04681 = phi ptr [ %.147, %stb_vorbis_close.exit60 ], [ %25, %.preheader ]
  %.05080 = phi i32 [ %.151, %stb_vorbis_close.exit60 ], [ %19, %.preheader ]
  %34 = add nsw i32 %33, %.04083
  %35 = load i32, ptr %17, align 4, !tbaa !110
  %36 = mul nsw i32 %35, %33
  %37 = add nsw i32 %36, %.04482
  %38 = add nsw i32 %37, %19
  %39 = icmp sgt i32 %38, %.05080
  br i1 %39, label %40, label %stb_vorbis_close.exit60

40:                                               ; preds = %.lr.ph
  %41 = shl nsw i32 %.05080, 1
  %42 = sext i32 %41 to i64
  %43 = shl nsw i64 %42, 1
  %44 = call ptr @realloc(ptr noundef %.04681, i64 noundef %43) #36
  %.not58 = icmp eq ptr %44, null
  br i1 %.not58, label %45, label %.stb_vorbis_close.exit60_crit_edge

.stb_vorbis_close.exit60_crit_edge:               ; preds = %40
  %.pre = load i32, ptr %17, align 4, !tbaa !110
  br label %stb_vorbis_close.exit60

45:                                               ; preds = %40
  call void @free(ptr noundef %.04681) #35
  call void @vorbis_deinit(ptr noundef nonnull %14)
  %46 = getelementptr inbounds nuw i8, ptr %14, i64 128
  %47 = load ptr, ptr %46, align 8, !tbaa !17
  %.not.i.i59 = icmp eq ptr %47, null
  br i1 %.not.i.i59, label %stb_vorbis_close.exit.sink.split, label %stb_vorbis_close.exit

stb_vorbis_close.exit60:                          ; preds = %.stb_vorbis_close.exit60_crit_edge, %.lr.ph
  %48 = phi i32 [ %35, %.lr.ph ], [ %.pre, %.stb_vorbis_close.exit60_crit_edge ]
  %.151 = phi i32 [ %.05080, %.lr.ph ], [ %41, %.stb_vorbis_close.exit60_crit_edge ]
  %.147 = phi ptr [ %.04681, %.lr.ph ], [ %44, %.stb_vorbis_close.exit60_crit_edge ]
  %49 = sext i32 %37 to i64
  %50 = getelementptr inbounds i16, ptr %.147, i64 %49
  %51 = sub nsw i32 %.151, %37
  %52 = call i32 @stb_vorbis_get_frame_short_interleaved(ptr noundef nonnull %14, i32 noundef %48, ptr noundef %50, i32 noundef %51)
  %53 = icmp eq i32 %52, 0
  br i1 %53, label %._crit_edge, label %.lr.ph

._crit_edge:                                      ; preds = %stb_vorbis_close.exit60, %.preheader
  %.046.lcssa = phi ptr [ %25, %.preheader ], [ %.147, %stb_vorbis_close.exit60 ]
  %.040.lcssa = phi i32 [ 0, %.preheader ], [ %34, %stb_vorbis_close.exit60 ]
  store ptr %.046.lcssa, ptr %3, align 8, !tbaa !54
  call void @vorbis_deinit(ptr noundef nonnull %14)
  %54 = getelementptr inbounds nuw i8, ptr %14, i64 128
  %55 = load ptr, ptr %54, align 8, !tbaa !17
  %.not.i.i61 = icmp eq ptr %55, null
  br i1 %.not.i.i61, label %stb_vorbis_close.exit.sink.split, label %stb_vorbis_close.exit

stb_vorbis_close.exit.sink.split:                 ; preds = %._crit_edge, %45, %30
  %.0.ph = phi i32 [ -2, %30 ], [ -2, %45 ], [ %.040.lcssa, %._crit_edge ]
  call void @free(ptr noundef nonnull %14) #35
  br label %stb_vorbis_close.exit

stb_vorbis_close.exit:                            ; preds = %stb_vorbis_close.exit.sink.split, %4, %45, %._crit_edge, %30, %stb_vorbis_open_filename.exit
  %.0 = phi i32 [ -1, %stb_vorbis_open_filename.exit ], [ -2, %30 ], [ %.040.lcssa, %._crit_edge ], [ -2, %45 ], [ -1, %4 ], [ %.0.ph, %stb_vorbis_close.exit.sink.split ]
  call void @llvm.lifetime.end.p0(i64 4, ptr nonnull %5) #35
  ret i32 %.0
}